(dp0
S'kf'
p1
(lp2
(I0
(lp3
F0.0
aF0.0
aF0.0
atp4
a(I60
(lp5
F1.2
aF1.1
aF1.0
atp6
a(I180
(lp7
F0.0
aF0.0
aF0.0
atp8
asS'param'
p9
(dp10
S'jnames'
p11
(lp12
S'j1'
p13
aS'j2'
p14
aS'j3'
p15
asS'freq'
p16
I60
sS'nb_joints'
p17
I3
sS'wname'
p18
S'calm'
p19
ss.